target datalayout = "e-m:e-p270:32:32-p271:32:32-p272:64:64-i64:64-i128:128-f80:128-n8:16:32:64-S128"
target triple = "x86_64-pc-linux-gnu"

%struct.Map_NodeStruct_t_ = type { ptr, ptr, i32, i32, i32, i32, [3 x i32], [3 x float], float, ptr, ptr, ptr, ptr, [2 x %struct.Map_TimeStruct_t_], [2 x %struct.Map_TimeStruct_t_], [2 x ptr], ptr, ptr, ptr }
%struct.Map_TimeStruct_t_ = type { float, float, float }

; Function Attrs: nounwind uwtable
define void @Map_MappingMark_rec(ptr noundef %0) #0 {
  %2 = alloca ptr, align 8
  store ptr %0, ptr %2, align 8, !tbaa !3
  %3 = load ptr, ptr %2, align 8, !tbaa !3
  %4 = getelementptr inbounds nuw %struct.Map_NodeStruct_t_, ptr %3, i32 0, i32 5
  %5 = load i32, ptr %4, align 4
  %6 = and i32 %5, 1
  %7 = icmp eq i32 %6, 1
  br i1 %7, label %8, label %9

8:                                                ; preds = %1
  br label %32

9:                                                ; preds = %1
  %10 = load ptr, ptr %2, align 8, !tbaa !3
  %11 = getelementptr inbounds nuw %struct.Map_NodeStruct_t_, ptr %10, i32 0, i32 5
  %12 = load i32, ptr %11, align 4
  %13 = and i32 %12, -2
  %14 = or i32 %13, 1
  store i32 %14, ptr %11, align 4
  %15 = load ptr, ptr %2, align 8, !tbaa !3
  %16 = call i32 @Map_NodeIsAnd(ptr noundef %15)
  %17 = icmp ne i32 %16, 0
  br i1 %17, label %19, label %18

18:                                               ; preds = %9
  br label %32

19:                                               ; preds = %9
  %20 = load ptr, ptr %2, align 8, !tbaa !3
  %21 = getelementptr inbounds nuw %struct.Map_NodeStruct_t_, ptr %20, i32 0, i32 9
  %22 = load ptr, ptr %21, align 8, !tbaa !12
  %23 = ptrtoint ptr %22 to i64
  %24 = and i64 %23, -2
  %25 = inttoptr i64 %24 to ptr
  call void @Map_MappingMark_rec(ptr noundef %25)
  %26 = load ptr, ptr %2, align 8, !tbaa !3
  %27 = getelementptr inbounds nuw %struct.Map_NodeStruct_t_, ptr %26, i32 0, i32 10
  %28 = load ptr, ptr %27, align 8, !tbaa !18
  %29 = ptrtoint ptr %28 to i64
  %30 = and i64 %29, -2
  %31 = inttoptr i64 %30 to ptr
  call void @Map_MappingMark_rec(ptr noundef %31)
  br label %32

32:                                               ; preds = %19, %18, %8
  ret void
}