; Function Attrs: nounwind uwtable
define void @Map_MappingMark_rec(ptr noundef %0) local_unnamed_addr #0 {
  %2 = getelementptr inbounds nuw i8, ptr %0, i64 28
  %3 = load i32, ptr %2, align 4
  %4 = and i32 %3, 1
  %.not6 = icmp eq i32 %4, 0
  br i1 %.not6, label %.lr.ph, label %._crit_edge

.lr.ph:                                           ; preds = %1, %tailrecurse
  %5 = phi i32 [ %20, %tailrecurse ], [ %3, %1 ]
  %6 = phi ptr [ %19, %tailrecurse ], [ %2, %1 ]
  %.tr7 = phi ptr [ %18, %tailrecurse ], [ %0, %1 ]
  %7 = or disjoint i32 %5, 1
  store i32 %7, ptr %6, align 4
  %8 = tail call i32 @Map_NodeIsAnd(ptr noundef nonnull %.tr7) #16
  %.not5 = icmp eq i32 %8, 0
  br i1 %.not5, label %._crit_edge, label %tailrecurse

tailrecurse:                                      ; preds = %.lr.ph
  %9 = getelementptr inbounds nuw i8, ptr %.tr7, i64 64
  %10 = load ptr, ptr %9, align 8, !tbaa !3
  %11 = ptrtoint ptr %10 to i64
  %12 = and i64 %11, -2
  %13 = inttoptr i64 %12 to ptr
  tail call void @Map_MappingMark_rec(ptr noundef %13)
  %14 = getelementptr inbounds nuw i8, ptr %.tr7, i64 72
  %15 = load ptr, ptr %14, align 8, !tbaa !14
  %16 = ptrtoint ptr %15 to i64
  %17 = and i64 %16, -2
  %18 = inttoptr i64 %17 to ptr
  %19 = getelementptr inbounds nuw i8, ptr %18, i64 28
  %20 = load i32, ptr %19, align 4
  %21 = and i32 %20, 1
  %.not = icmp eq i32 %21, 0
  br i1 %.not, label %.lr.ph, label %._crit_edge

._crit_edge:                                      ; preds = %tailrecurse, %.lr.ph, %1
  ret void
}